(dp0
S'Miopithecus_ogouensis'
p1
S'Talapoin_Monkey'
p2
sS'Cercopithecus_aethiops_aethiops'
p3
S'Grivet'
p4
sS'Papio_cynocephalus'
p5
S'Baboon'
p6
sS'Pan_troglodytes_schweinfurthii'
p7
S'Chimp_pts'
p8
sS'Cercopithecus_mona'
p9
S'Mona_Monkey'
p10
sS'Cercopithecus_nictitans'
p11
S'Greater_Spot-nosed_Monkey'
p12
sS'Cercopithecus_solatus'
p13
S'Sun-tailed_Monkey'
p14
sS'Cercocebus_atys'
p15
S'Sooty_Mangabey'
p16
sS'Cercopithecus_ascanius'
p17
S'Red-tailed_Guenon'
p18
sS'Homo_sapiens'
p19
S'Human'
p20
sS'Cercopithecus_neglectus'
p21
S'DeBrazzas_Monkey'
p22
sS'Cercopithecus_aethiops_tantalus'
p23
S'Tantalus_Monkey'
p24
sS'Gorilla_gorilla'
p25
S'Gorilla'
p26
sS'Pan_troglodytes_troglodytes'
p27
S'Chimp_ptt'
p28
sS'Mandrillus_sphinx'
p29
S'Mandrill'
p30
sS'Piliocolobus_badius'
p31
S'Western_red_colobus'
p32
sS'Cercopithecus_lhoesti'
p33
S'LHoests_Monkey'
p34
sS'Cercocebus_torquatus'
p35
S'Red-capped_Mangabey'
p36
sS'Cercopithecus_erythrotis'
p37
S'Red-eared_Guenon'
p38
sS'Cercopithecus_cephus'
p39
S'Mustached_Monkey'
p40
sS'Colobus_guereza'
p41
S'Colobus_Monkey'
p42
sS'Erythrocebus_patas'
p43
S'Patas_monkey'
p44
sS'Cercopithecus_albogularis'
p45
S'Sykes_Monkey'
p46
sS'P._t._schweinfurthii'
p47
S'Chimp_pts'
p48
sS'Cercopithecus_aethiops_sabaeus'
p49
S'Sabaeus_Monkey'
p50
sS'Cercopithecus_aethiops_pygerythrus'
p51
S'Vervet'
p52
s.