(dp0
S'Sykes_Monkey'
p1
cnumpy.core.multiarray
scalar
p2
(cnumpy
dtype
p3
(S'f8'
p4
I0
I1
tp5
Rp6
(I3
S'<'
p7
NNNI-1
I-1
I0
tp8
bS'\xa8-\x16\xd0\x7f\xb4\x8f?'
p9
tp10
Rp11
sS'Mandrill'
p12
g2
(g6
S'\xf1\xeb?\x04\x12+\x98?'
p13
tp14
Rp15
sS'Colobus_Monkey'
p16
g2
(g6
S'\xd8\x92\x10\nJ0\x92?'
p17
tp18
Rp19
sS'DeBrazzas_Monkey'
p20
g2
(g6
S'p5#\xb6s"\x92?'
p21
tp22
Rp23
sS'Vervet'
p24
g2
(g6
S'\xaa\xd7Sm\xd6\x89\xad?'
p25
tp26
Rp27
sS'Red-capped_Mangabey'
p28
g2
(g6
S'\xb0\x89\xb2\xfaGV\xba?'
p29
tp30
Rp31
sS'Chimp_pts'
p32
g2
(g6
S'\x18\xc6\x8e\x92\xe7\xf3\x90?'
p33
tp34
Rp35
sS'Tantalus_Monkey'
p36
g2
(g6
S'l\xb2\xb2,]\x96\xc1?'
p37
tp38
Rp39
sS'Chimp_ptt'
p40
g2
(g6
S'\x8b\xd40C\r\x18\x90?'
p41
tp42
Rp43
sS'Baboon'
p44
g2
(g6
S'r\xcbC\x07Ho\xbd?'
p45
tp46
Rp47
sS'Mona_Monkey'
p48
g2
(g6
S'9\xa3\x8e\xdd@y\xa9?'
p49
tp50
Rp51
sS'Greater_Spot-nosed_Monkey'
p52
g2
(g6
S'2\xe1k\xd5\xea\xe3\xa1?'
p53
tp54
Rp55
sS'Western_red_colobus'
p56
g2
(g6
S'+\x91\xa8]\x1b{\x90?'
p57
tp58
Rp59
sS'Sun-tailed_Monkey'
p60
g2
(g6
S'\xf9\x04\xa4aM\x99\x9e?'
p61
tp62
Rp63
sS'Mustached_Monkey'
p64
g2
(g6
S'\xaf[\xce\x16\t\x92\xae?'
p65
tp66
Rp67
sS'Grivet'
p68
g2
(g6
S'\xcd\xa0\xf8\x01?Q\xa2?'
p69
tp70
Rp71
sS'Gorilla'
p72
g2
(g6
S'\xa2\x9bOZ\xe0\x0b\x88?'
p73
tp74
Rp75
sS'Red-eared_Guenon'
p76
g2
(g6
S'\x8c\x06H\xd5\xf8\xf8\xa0?'
p77
tp78
Rp79
sS'LHoests_Monkey'
p80
g2
(g6
S'\x8fD\xebSyK\x9e?'
p81
tp82
Rp83
sS'Red-tailed_Guenon'
p84
g2
(g6
S'k\x01v\x91\xd4\xc4\x9b?'
p85
tp86
Rp87
sS'Sooty_Mangabey'
p88
g2
(g6
S'5M\xd6\xd0\xe2\x82\x90?'
p89
tp90
Rp91
sS'Human'
p92
g2
(g6
S'\xf5\xad_\xeb\x02eS?'
p93
tp94
Rp95
sS'Talapoin_Monkey'
p96
g2
(g6
S']\x8d\n\x9f\xb5&\x9e?'
p97
tp98
Rp99
sS'Sabaeus_Monkey'
p100
g2
(g6
S'3\xdd\xca o\x10\xbb?'
p101
tp102
Rp103
s.