(dp0
S'Sykes_Monkey'
p1
F0.015637
sS'Mandrill'
p2
F0.054858
sS'Colobus_Monkey'
p3
F0.02062
sS'DeBrazzas_Monkey'
p4
F0.033835
sS'Vervet'
p5
F0.045923
sS'Red-capped_Mangabey'
p6
F0.093743
sS'Chimp_pts'
p7
F0.017726
sS'Baboon'
p8
F0.083669
sS'Chimp_ptt'
p9
F0.016784
sS'Tantalus_Monkey'
p10
F0.104583
sS'Mona_Monkey'
p11
F0.048123
sS'Greater_Spot-nosed_Monkey'
p12
F0.033025
sS'Western_red_colobus'
p13
F0.02699
sS'Sun-tailed_Monkey'
p14
F0.044659
sS'Mustached_Monkey'
p15
F0.035379
sS'Grivet'
p16
F0.034766
sS'Red-tailed_Guenon'
p17
F0.038268
sS'Red-eared_Guenon'
p18
F0.037494
sS'LHoests_Monkey'
p19
F0.035216
sS'Gorilla'
p20
F0.012469
sS'Sooty_Mangabey'
p21
F0.018897
sS'Human'
p22
F0.001596
sS'Talapoin_Monkey'
p23
F0.029901
sS'Sabaeus_Monkey'
p24
F0.115838
s.