(dp0
S'Baboon'
p1
cnumpy.core.multiarray
scalar
p2
(cnumpy
dtype
p3
(S'f8'
p4
I0
I1
tp5
Rp6
(I3
S'<'
p7
NNNI-1
I-1
I0
tp8
bS'\x18[:\x14\xfd\xe7\xc8?'
p9
tp10
Rp11
sS'Western_red_colobus'
p12
g2
(g6
S'\xee\xa8k\xa3\t\xe4\xa9?'
p13
tp14
Rp15
sS'Mandrill'
p16
g2
(g6
S'0\xf0:j\xa5\x01\xa2?'
p17
tp18
Rp19
sS'Sabaeus_Monkey'
p20
g2
(g6
S'\xa7\xcab\xacz\xf6\xc5?'
p21
tp22
Rp23
sS'Colobus_Monkey'
p24
g2
(g6
S'a1s\x1a\xaf\xa6\x9b?'
p25
tp26
Rp27
sS'DeBrazzas_Monkey'
p28
g2
(g6
S'[\xe93\x93\xeb\xde\x9c?'
p29
tp30
Rp31
sS'Gorilla'
p32
g2
(g6
S'(\x84\xde|\xcc\xae\x92?'
p33
tp34
Rp35
sS'Vervet'
p36
g2
(g6
S'\xcb\x91\xc7\x84l\xae\xb5?'
p37
tp38
Rp39
sS'Sooty_Mangabey'
p40
g2
(g6
S'3L1\xb3]R\x9a?'
p41
tp42
Rp43
sS'Human'
p44
g2
(g6
S'\xefa\x14\x07\rRZ?'
p45
tp46
Rp47
sS'Red-capped_Mangabey'
p48
g2
(g6
S'\xecpT\x8c\x89\xd1\xc0?'
p49
tp50
Rp51
sS'Chimp_pts'
p52
g2
(g6
S'6\xdf\xb5.\xf8\xeb\x92?'
p53
tp54
Rp55
sS'Tantalus_Monkey'
p56
g2
(g6
S'\x8d\xe5pj.K\xb3?'
p57
tp58
Rp59
sS'Red-eared_Guenon'
p60
g2
(g6
S'\xb2J\xb4iqa\xbe?'
p61
tp62
Rp63
sS'Chimp_ptt'
p64
g2
(g6
S'\xe4\xff\x94<\x880\x93?'
p65
tp66
Rp67
s.