(dp0
S'Miopithecus_ogouensis'
p1
S'SIVtal'
p2
sS'Cercopithecus_aethiops_aethiops'
p3
S'SIVgrv'
p4
sS'Papio_cynocephalus'
p5
S'SIVbab'
p6
sS'Cercopithecus_aethiops_tantalus'
p7
S'SIVtan'
p8
sS'Cercopithecus_mona'
p9
S'SIVden'
p10
sS'Cercopithecus_nictitans'
p11
S'SIVgsn'
p12
sS'Cercopithecus_solatus'
p13
S'SIVsun'
p14
sS'Cercocebus_atys'
p15
S'SIVsmm'
p16
sS'Cercopithecus_ascanius'
p17
S'SIVasc'
p18
sS'Homo_sapiens'
p19
S'HIV'
p20
sS'Cercopithecus_neglectus'
p21
S'SIVrcm'
p22
sS'Pan_troglodytes_schweinfurthii'
p23
S'SIVcpz'
p24
sS'Gorilla_gorilla'
p25
S'SIVgor'
p26
sS'Pan_troglodytes_troglodytes'
p27
S'SIVcpz'
p28
sS'Mandrillus_sphinx'
p29
S'SIVmnd-2'
p30
sS'Piliocolobus_badius'
p31
S'SIVwrc'
p32
sS'Cercopithecus_lhoesti'
p33
S'SIVlst'
p34
sS'Cercocebus_torquatus'
p35
S'SIVrcm'
p36
sS'Cercopithecus_erythrotis'
p37
S'SIVreg'
p38
sS'Cercopithecus_cephus'
p39
S'SIVmus-1'
p40
sS'Cercopithecus_aethiops_sabaeus'
p41
S'SIVsab'
p42
sS'Cercopithecus_albogularis'
p43
S'SIVsyk'
p44
sS'Colobus_guereza'
p45
S'SIVcol'
p46
sS'Cercopithecus_aethiops_pygerythrus'
p47
S'SIVver'
p48
s.